target datalayout = "e-m:e-p270:32:32-p271:32:32-p272:64:64-i64:64-i128:128-f80:128-n8:16:32:64-S128"
target triple = "x86_64-pc-linux-gnu"

%struct.eio_obj = type { i32, ptr, ptr, i8 }
%struct.client_io_info = type { i32, ptr, %struct.io_hdr_t, ptr, i32, i8, ptr, ptr, i32, i8, i32, i32, i8, i32, i8 }
%struct.io_hdr_t = type { i32, i16, i16, i32 }
%struct.stepd_step_rec_t = type { ptr, ptr, i32, %union.pthread_cond_t, %union.pthread_mutex_t, %struct.slurm_step_id_msg, i32, i32, i32, i32, i32, i32, ptr, ptr, i32, i32, ptr, i32, i32, i32, i32, i32, ptr, ptr, ptr, ptr, i32, i32, i64, i64, i16, i32, ptr, ptr, ptr, i32, ptr, i32, ptr, i32, ptr, i16, i32, i32, i32, ptr, i32, ptr, ptr, ptr, ptr, i32, i32, ptr, ptr, i8, i8, i8, i64, i32, ptr, ptr, ptr, ptr, ptr, ptr, ptr, ptr, ptr, ptr, i32, i32, ptr, i8, %union.pthread_cond_t, %union.pthread_mutex_t, i64, ptr, i32, i32, i32, ptr, i64, ptr, ptr, i8, ptr, i16, ptr, ptr, ptr, ptr, ptr, ptr, i64, ptr, i64, ptr, i16, i8, i16, i32, ptr, i16, ptr, ptr, i16, ptr, ptr, ptr, i8 }
%struct.slurm_step_id_msg = type { i64, i32, i32, i32 }
%union.pthread_cond_t = type { %struct.__pthread_cond_s }
%struct.__pthread_cond_s = type { %union.__atomic_wide_counter, %union.__atomic_wide_counter, [2 x i32], [2 x i32], i32, i32, [2 x i32] }
%union.__atomic_wide_counter = type { i64 }
%union.pthread_mutex_t = type { %struct.__pthread_mutex_s }
%struct.__pthread_mutex_s = type { i32, i32, i32, i32, i32, i16, i16, %struct.__pthread_internal_list }
%struct.__pthread_internal_list = type { ptr, ptr }
%struct.io_buf = type { i32, i32, ptr }

@.str.26 = private unnamed_addr constant [8 x i8] c"  false\00", align 1
@.str.27 = private unnamed_addr constant [24 x i8] c"Called _client_writable\00", align 1
@.str.28 = private unnamed_addr constant [17 x i8] c"  false, out_eof\00", align 1
@.str.29 = private unnamed_addr constant [26 x i8] c"  client->out.msg != NULL\00", align 1
@.str.30 = private unnamed_addr constant [42 x i8] c"  client->out.msg_queue queue length = %d\00", align 1

; Function Attrs: nounwind uwtable
define internal zeroext i1 @_client_writable(ptr noundef %0) #0 {
  %2 = alloca i1, align 1
  %3 = alloca ptr, align 8
  %4 = alloca ptr, align 8
  %5 = alloca i32, align 4
  %6 = alloca ptr, align 8
  %7 = alloca ptr, align 8
  store ptr %0, ptr %3, align 8
  call void @llvm.lifetime.start.p0(i64 8, ptr %4) #10
  %8 = load ptr, ptr %3, align 8
  %9 = getelementptr inbounds nuw %struct.eio_obj, ptr %8, i32 0, i32 1
  %10 = load ptr, ptr %9, align 8
  store ptr %10, ptr %4, align 8
  br label %11

11:                                               ; preds = %1
  br label %12

12:                                               ; preds = %11
  %13 = call i32 @get_log_level()
  %14 = icmp sge i32 %13, 9
  br i1 %14, label %15, label %16

15:                                               ; preds = %12
  call void (i32, ptr, ...) @log_var(i32 noundef 9, ptr noundef @.str.27)
  br label %16

16:                                               ; preds = %15, %12
  br label %17

17:                                               ; preds = %16
  br label %18

18:                                               ; preds = %17
  br label %19

19:                                               ; preds = %18
  br label %20

20:                                               ; preds = %19
  %21 = load ptr, ptr %4, align 8
  %22 = getelementptr inbounds nuw %struct.client_io_info, ptr %21, i32 0, i32 9
  %23 = load i8, ptr %22, align 4, !range !8, !noundef !9
  %24 = trunc i8 %23 to i1
  %25 = zext i1 %24 to i32
  %26 = icmp eq i32 %25, 1
  br i1 %26, label %27, label %38

27:                                               ; preds = %20
  br label %28

28:                                               ; preds = %27
  br label %29

29:                                               ; preds = %28
  %30 = call i32 @get_log_level()
  %31 = icmp sge i32 %30, 9
  br i1 %31, label %32, label %33

32:                                               ; preds = %29
  call void (i32, ptr, ...) @log_var(i32 noundef 9, ptr noundef @.str.28)
  br label %33

33:                                               ; preds = %32, %29
  br label %34

34:                                               ; preds = %33
  br label %35

35:                                               ; preds = %34
  br label %36

36:                                               ; preds = %35
  br label %37

37:                                               ; preds = %36
  store i1 false, ptr %2, align 1
  store i32 1, ptr %5, align 4
  br label %134

38:                                               ; preds = %20
  %39 = load ptr, ptr %4, align 8
  %40 = getelementptr inbounds nuw %struct.client_io_info, ptr %39, i32 0, i32 6
  %41 = load ptr, ptr %40, align 8
  %42 = icmp eq ptr %41, null
  br i1 %42, label %43, label %74

43:                                               ; preds = %38
  call void @llvm.lifetime.start.p0(i64 8, ptr %6) #10
  call void @llvm.lifetime.start.p0(i64 8, ptr %7) #10
  %44 = call ptr @list_create(ptr noundef null)
  %45 = load ptr, ptr %4, align 8
  %46 = getelementptr inbounds nuw %struct.client_io_info, ptr %45, i32 0, i32 6
  store ptr %44, ptr %46, align 8
  %47 = load ptr, ptr %4, align 8
  %48 = getelementptr inbounds nuw %struct.client_io_info, ptr %47, i32 0, i32 1
  %49 = load ptr, ptr %48, align 8
  %50 = getelementptr inbounds nuw %struct.stepd_step_rec_t, ptr %49, i32 0, i32 72
  %51 = load ptr, ptr %50, align 8
  %52 = call ptr @list_iterator_create(ptr noundef %51)
  store ptr %52, ptr %6, align 8
  br label %53

53:                                               ; preds = %57, %43
  %54 = load ptr, ptr %6, align 8
  %55 = call ptr @list_next(ptr noundef %54)
  store ptr %55, ptr %7, align 8
  %56 = icmp ne ptr %55, null
  br i1 %56, label %57, label %66

57:                                               ; preds = %53
  %58 = load ptr, ptr %7, align 8
  %59 = getelementptr inbounds nuw %struct.io_buf, ptr %58, i32 0, i32 0
  %60 = load i32, ptr %59, align 8
  %61 = add nsw i32 %60, 1
  store i32 %61, ptr %59, align 8
  %62 = load ptr, ptr %4, align 8
  %63 = getelementptr inbounds nuw %struct.client_io_info, ptr %62, i32 0, i32 6
  %64 = load ptr, ptr %63, align 8
  %65 = load ptr, ptr %7, align 8
  call void @list_enqueue(ptr noundef %64, ptr noundef %65)
  br label %53, !llvm.loop !10

66:                                               ; preds = %53
  %67 = load ptr, ptr %6, align 8
  call void @list_iterator_destroy(ptr noundef %67)
  %68 = load ptr, ptr %4, align 8
  %69 = getelementptr inbounds nuw %struct.client_io_info, ptr %68, i32 0, i32 1
  %70 = load ptr, ptr %69, align 8
  %71 = getelementptr inbounds nuw %struct.stepd_step_rec_t, ptr %70, i32 0, i32 65
  %72 = load ptr, ptr %71, align 8
  %73 = load ptr, ptr %3, align 8
  call void @list_append(ptr noundef %72, ptr noundef %73)
  call void @llvm.lifetime.end.p0(i64 8, ptr %7) #10
  call void @llvm.lifetime.end.p0(i64 8, ptr %6) #10
  br label %74

74:                                               ; preds = %66, %38
  %75 = load ptr, ptr %4, align 8
  %76 = getelementptr inbounds nuw %struct.client_io_info, ptr %75, i32 0, i32 7
  %77 = load ptr, ptr %76, align 8
  %78 = icmp ne ptr %77, null
  br i1 %78, label %79, label %90

79:                                               ; preds = %74
  br label %80

80:                                               ; preds = %79
  br label %81

81:                                               ; preds = %80
  %82 = call i32 @get_log_level()
  %83 = icmp sge i32 %82, 9
  br i1 %83, label %84, label %85

84:                                               ; preds = %81
  call void (i32, ptr, ...) @log_var(i32 noundef 9, ptr noundef @.str.29)
  br label %85

85:                                               ; preds = %84, %81
  br label %86

86:                                               ; preds = %85
  br label %87

87:                                               ; preds = %86
  br label %88

88:                                               ; preds = %87
  br label %89

89:                                               ; preds = %88
  br label %90

90:                                               ; preds = %89, %74
  %91 = load ptr, ptr %4, align 8
  %92 = getelementptr inbounds nuw %struct.client_io_info, ptr %91, i32 0, i32 6
  %93 = load ptr, ptr %92, align 8
  %94 = call i32 @list_is_empty(ptr noundef %93)
  %95 = icmp ne i32 %94, 0
  br i1 %95, label %111, label %96

96:                                               ; preds = %90
  br label %97

97:                                               ; preds = %96
  br label %98

98:                                               ; preds = %97
  %99 = call i32 @get_log_level()
  %100 = icmp sge i32 %99, 9
  br i1 %100, label %101, label %106

101:                                              ; preds = %98
  %102 = load ptr, ptr %4, align 8
  %103 = getelementptr inbounds nuw %struct.client_io_info, ptr %102, i32 0, i32 6
  %104 = load ptr, ptr %103, align 8
  %105 = call i32 @list_count(ptr noundef %104)
  call void (i32, ptr, ...) @log_var(i32 noundef 9, ptr noundef @.str.30, i32 noundef %105)
  br label %106

106:                                              ; preds = %101, %98
  br label %107

107:                                              ; preds = %106
  br label %108

108:                                              ; preds = %107
  br label %109

109:                                              ; preds = %108
  br label %110

110:                                              ; preds = %109
  br label %111

111:                                              ; preds = %110, %90
  %112 = load ptr, ptr %4, align 8
  %113 = getelementptr inbounds nuw %struct.client_io_info, ptr %112, i32 0, i32 7
  %114 = load ptr, ptr %113, align 8
  %115 = icmp ne ptr %114, null
  br i1 %115, label %122, label %116

116:                                              ; preds = %111
  %117 = load ptr, ptr %4, align 8
  %118 = getelementptr inbounds nuw %struct.client_io_info, ptr %117, i32 0, i32 6
  %119 = load ptr, ptr %118, align 8
  %120 = call i32 @list_is_empty(ptr noundef %119)
  %121 = icmp ne i32 %120, 0
  br i1 %121, label %123, label %122

122:                                              ; preds = %116, %111
  store i1 true, ptr %2, align 1
  store i32 1, ptr %5, align 4
  br label %134

123:                                              ; preds = %116
  br label %124

124:                                              ; preds = %123
  br label %125

125:                                              ; preds = %124
  %126 = call i32 @get_log_level()
  %127 = icmp sge i32 %126, 9
  br i1 %127, label %128, label %129

128:                                              ; preds = %125
  call void (i32, ptr, ...) @log_var(i32 noundef 9, ptr noundef @.str.26)
  br label %129

129:                                              ; preds = %128, %125
  br label %130

130:                                              ; preds = %129
  br label %131

131:                                              ; preds = %130
  br label %132

132:                                              ; preds = %131
  br label %133

133:                                              ; preds = %132
  store i1 false, ptr %2, align 1
  store i32 1, ptr %5, align 4
  br label %134

134:                                              ; preds = %133, %122, %37
  call void @llvm.lifetime.end.p0(i64 8, ptr %4) #10
  %135 = load i1, ptr %2, align 1
  ret i1 %135
}