; Function Attrs: nounwind uwtable
define internal noundef zeroext i1 @_client_writable(ptr noundef %0) #0 {
  %2 = getelementptr inbounds nuw i8, ptr %0, i64 8
  %3 = load ptr, ptr %2, align 8
  %4 = tail call i32 @get_log_level() #11
  %5 = icmp sgt i32 %4, 8
  br i1 %5, label %6, label %7

6:                                                ; preds = %1
  tail call void (i32, ptr, ...) @log_var(i32 noundef 9, ptr noundef nonnull @.str.27) #11
  br label %7

7:                                                ; preds = %6, %1
  %8 = getelementptr inbounds nuw i8, ptr %3, i64 68
  %9 = load i8, ptr %8, align 4, !range !8, !noundef !9
  %10 = trunc nuw i8 %9 to i1
  br i1 %10, label %11, label %14

11:                                               ; preds = %7
  %12 = tail call i32 @get_log_level() #11
  %13 = icmp sgt i32 %12, 8
  br i1 %13, label %.sink.split, label %58

14:                                               ; preds = %7
  %15 = getelementptr inbounds nuw i8, ptr %3, i64 48
  %16 = load ptr, ptr %15, align 8
  %17 = icmp eq ptr %16, null
  br i1 %17, label %18, label %34

18:                                               ; preds = %14
  %19 = tail call ptr @list_create(ptr noundef null) #11
  store ptr %19, ptr %15, align 8
  %20 = getelementptr inbounds nuw i8, ptr %3, i64 8
  %21 = load ptr, ptr %20, align 8
  %22 = getelementptr inbounds nuw i8, ptr %21, i64 552
  %23 = load ptr, ptr %22, align 8
  %24 = tail call ptr @list_iterator_create(ptr noundef %23) #11
  %25 = tail call ptr @list_next(ptr noundef %24) #11
  %.not23 = icmp eq ptr %25, null
  br i1 %.not23, label %._crit_edge, label %.lr.ph

.lr.ph:                                           ; preds = %18, %.lr.ph
  %26 = phi ptr [ %30, %.lr.ph ], [ %25, %18 ]
  %27 = load i32, ptr %26, align 8
  %28 = add nsw i32 %27, 1
  store i32 %28, ptr %26, align 8
  %29 = load ptr, ptr %15, align 8
  tail call void @list_enqueue(ptr noundef %29, ptr noundef nonnull %26) #11
  %30 = tail call ptr @list_next(ptr noundef %24) #11
  %.not = icmp eq ptr %30, null
  br i1 %.not, label %._crit_edge, label %.lr.ph, !llvm.loop !10

._crit_edge:                                      ; preds = %.lr.ph, %18
  tail call void @list_iterator_destroy(ptr noundef %24) #11
  %31 = load ptr, ptr %20, align 8
  %32 = getelementptr inbounds nuw i8, ptr %31, i64 504
  %33 = load ptr, ptr %32, align 8
  tail call void @list_append(ptr noundef %33, ptr noundef %0) #11
  br label %34

34:                                               ; preds = %._crit_edge, %14
  %35 = getelementptr inbounds nuw i8, ptr %3, i64 56
  %36 = load ptr, ptr %35, align 8
  %.not19 = icmp eq ptr %36, null
  br i1 %.not19, label %41, label %37

37:                                               ; preds = %34
  %38 = tail call i32 @get_log_level() #11
  %39 = icmp sgt i32 %38, 8
  br i1 %39, label %40, label %41

40:                                               ; preds = %37
  tail call void (i32, ptr, ...) @log_var(i32 noundef 9, ptr noundef nonnull @.str.29) #11
  br label %41

41:                                               ; preds = %37, %40, %34
  %42 = load ptr, ptr %15, align 8
  %43 = tail call i32 @list_is_empty(ptr noundef %42) #11
  %.not20 = icmp eq i32 %43, 0
  br i1 %.not20, label %44, label %50

44:                                               ; preds = %41
  %45 = tail call i32 @get_log_level() #11
  %46 = icmp sgt i32 %45, 8
  br i1 %46, label %47, label %50

47:                                               ; preds = %44
  %48 = load ptr, ptr %15, align 8
  %49 = tail call i32 @list_count(ptr noundef %48) #11
  tail call void (i32, ptr, ...) @log_var(i32 noundef 9, ptr noundef nonnull @.str.30, i32 noundef %49) #11
  br label %50

50:                                               ; preds = %44, %47, %41
  %51 = load ptr, ptr %35, align 8
  %.not21 = icmp eq ptr %51, null
  br i1 %.not21, label %52, label %58

52:                                               ; preds = %50
  %53 = load ptr, ptr %15, align 8
  %54 = tail call i32 @list_is_empty(ptr noundef %53) #11
  %.not22 = icmp eq i32 %54, 0
  br i1 %.not22, label %58, label %55

55:                                               ; preds = %52
  %56 = tail call i32 @get_log_level() #11
  %57 = icmp sgt i32 %56, 8
  br i1 %57, label %.sink.split, label %58

.sink.split:                                      ; preds = %55, %11
  %.str.26.sink = phi ptr [ @.str.28, %11 ], [ @.str.26, %55 ]
  tail call void (i32, ptr, ...) @log_var(i32 noundef 9, ptr noundef nonnull %.str.26.sink) #11
  br label %58

58:                                               ; preds = %.sink.split, %55, %50, %52, %11
  %.0 = phi i1 [ false, %11 ], [ true, %52 ], [ true, %50 ], [ false, %55 ], [ false, %.sink.split ]
  ret i1 %.0
}